target datalayout = "e-m:e-p270:32:32-p271:32:32-p272:64:64-i64:64-i128:128-f80:128-n8:16:32:64-S128"
target triple = "x86_64-pc-linux-gnu"

%struct.prov_sm4_xts_ctx_st = type { %struct.prov_cipher_ctx_st, %union.anon.0, %union.anon.0, i32, %struct.xts128_context, ptr, ptr }
%struct.prov_cipher_ctx_st = type { [16 x i8], [16 x i8], [16 x i8], ptr, %union.anon, i32, i64, i64, i64, i64, i32, i8, i32, ptr, i32, i64, i32, i64, i32, ptr, ptr, ptr }
%union.anon = type { ptr }
%union.anon.0 = type { double, [120 x i8] }
%struct.xts128_context = type { ptr, ptr, ptr, ptr }
%struct.ossl_param_st = type { ptr, i32, ptr, i64, i64 }

@.str = private unnamed_addr constant [62 x i8] c"../openssl/providers/implementations/ciphers/cipher_sm4_xts.c\00", align 1
@.str.1 = private unnamed_addr constant [13 x i8] c"xts_standard\00", align 1
@__func__.sm4_xts_set_ctx_params = private unnamed_addr constant [23 x i8] c"sm4_xts_set_ctx_params\00", align 1
@.str.2 = private unnamed_addr constant [3 x i8] c"GB\00", align 1
@.str.3 = private unnamed_addr constant [5 x i8] c"IEEE\00", align 1

; Function Attrs: inlinehint nounwind uwtable
define internal i32 @ossl_param_is_empty(ptr noundef %0) #3 {
  %2 = alloca ptr, align 8
  store ptr %0, ptr %2, align 8, !tbaa !11
  %3 = load ptr, ptr %2, align 8, !tbaa !11
  %4 = icmp eq ptr %3, null
  br i1 %4, label %10, label %5

5:                                                ; preds = %1
  %6 = load ptr, ptr %2, align 8, !tbaa !11
  %7 = getelementptr inbounds nuw %struct.ossl_param_st, ptr %6, i32 0, i32 0
  %8 = load ptr, ptr %7, align 8, !tbaa !39
  %9 = icmp eq ptr %8, null
  br label %10

10:                                               ; preds = %5, %1
  %11 = phi i1 [ true, %1 ], [ %9, %5 ]
  %12 = zext i1 %11 to i32
  ret i32 %12
}

; Function Attrs: nounwind uwtable
define internal i32 @sm4_xts_set_ctx_params(ptr noundef %0, ptr noundef %1) #0 {
  %3 = alloca i32, align 4
  %4 = alloca ptr, align 8
  %5 = alloca ptr, align 8
  %6 = alloca ptr, align 8
  %7 = alloca ptr, align 8
  %8 = alloca i32, align 4
  %9 = alloca ptr, align 8
  store ptr %0, ptr %4, align 8, !tbaa !3
  store ptr %1, ptr %5, align 8, !tbaa !11
  call void @llvm.lifetime.start.p0(i64 8, ptr %6) #4
  %10 = load ptr, ptr %4, align 8, !tbaa !3
  store ptr %10, ptr %6, align 8, !tbaa !15
  call void @llvm.lifetime.start.p0(i64 8, ptr %7) #4
  %11 = load ptr, ptr %5, align 8, !tbaa !11
  %12 = call i32 @ossl_param_is_empty(ptr noundef %11)
  %13 = icmp ne i32 %12, 0
  br i1 %13, label %14, label %15

14:                                               ; preds = %2
  store i32 1, ptr %3, align 4
  store i32 1, ptr %8, align 4
  br label %52

15:                                               ; preds = %2
  %16 = load ptr, ptr %5, align 8, !tbaa !11
  %17 = call ptr @OSSL_PARAM_locate_const(ptr noundef %16, ptr noundef @.str.1)
  store ptr %17, ptr %7, align 8, !tbaa !11
  %18 = load ptr, ptr %7, align 8, !tbaa !11
  %19 = icmp ne ptr %18, null
  br i1 %19, label %20, label %51

20:                                               ; preds = %15
  call void @llvm.lifetime.start.p0(i64 8, ptr %9) #4
  store ptr null, ptr %9, align 8, !tbaa !7
  %21 = load ptr, ptr %7, align 8, !tbaa !11
  %22 = getelementptr inbounds nuw %struct.ossl_param_st, ptr %21, i32 0, i32 1
  %23 = load i32, ptr %22, align 8, !tbaa !31
  %24 = icmp ne i32 %23, 4
  br i1 %24, label %25, label %26

25:                                               ; preds = %20
  store i32 0, ptr %3, align 4
  store i32 1, ptr %8, align 4
  br label %48

26:                                               ; preds = %20
  %27 = load ptr, ptr %7, align 8, !tbaa !11
  %28 = call i32 @OSSL_PARAM_get_utf8_string_ptr(ptr noundef %27, ptr noundef %9)
  %29 = icmp ne i32 %28, 0
  br i1 %29, label %31, label %30

30:                                               ; preds = %26
  call void @ERR_new()
  call void @ERR_set_debug(ptr noundef @.str, i32 noundef 227, ptr noundef @__func__.sm4_xts_set_ctx_params)
  call void (i32, i32, ptr, ...) @ERR_set_error(i32 noundef 57, i32 noundef 103, ptr noundef null)
  store i32 0, ptr %3, align 4
  store i32 1, ptr %8, align 4
  br label %48

31:                                               ; preds = %26
  %32 = load ptr, ptr %9, align 8, !tbaa !7
  %33 = call i32 @OPENSSL_strcasecmp(ptr noundef %32, ptr noundef @.str.2)
  %34 = icmp eq i32 %33, 0
  br i1 %34, label %35, label %38

35:                                               ; preds = %31
  %36 = load ptr, ptr %6, align 8, !tbaa !15
  %37 = getelementptr inbounds nuw %struct.prov_sm4_xts_ctx_st, ptr %36, i32 0, i32 3
  store i32 0, ptr %37, align 8, !tbaa !25
  br label %47

38:                                               ; preds = %31
  %39 = load ptr, ptr %9, align 8, !tbaa !7
  %40 = call i32 @OPENSSL_strcasecmp(ptr noundef %39, ptr noundef @.str.3)
  %41 = icmp eq i32 %40, 0
  br i1 %41, label %42, label %45

42:                                               ; preds = %38
  %43 = load ptr, ptr %6, align 8, !tbaa !15
  %44 = getelementptr inbounds nuw %struct.prov_sm4_xts_ctx_st, ptr %43, i32 0, i32 3
  store i32 1, ptr %44, align 8, !tbaa !25
  br label %46

45:                                               ; preds = %38
  call void @ERR_new()
  call void @ERR_set_debug(ptr noundef @.str, i32 noundef 235, ptr noundef @__func__.sm4_xts_set_ctx_params)
  call void (i32, i32, ptr, ...) @ERR_set_error(i32 noundef 57, i32 noundef 104, ptr noundef null)
  store i32 0, ptr %3, align 4
  store i32 1, ptr %8, align 4
  br label %48

46:                                               ; preds = %42
  br label %47

47:                                               ; preds = %46, %35
  store i32 0, ptr %8, align 4
  br label %48

48:                                               ; preds = %47, %45, %30, %25
  call void @llvm.lifetime.end.p0(i64 8, ptr %9) #4
  %49 = load i32, ptr %8, align 4
  switch i32 %49, label %52 [
    i32 0, label %50
  ]

50:                                               ; preds = %48
  br label %51

51:                                               ; preds = %50, %15
  store i32 1, ptr %3, align 4
  store i32 1, ptr %8, align 4
  br label %52

52:                                               ; preds = %51, %48, %14
  call void @llvm.lifetime.end.p0(i64 8, ptr %7) #4
  call void @llvm.lifetime.end.p0(i64 8, ptr %6) #4
  %53 = load i32, ptr %3, align 4
  ret i32 %53
}