; Function Attrs: nounwind uwtable
define internal range(i32 0, 2) i32 @sm4_xts_set_ctx_params(ptr noundef writeonly captures(none) %0, ptr noundef %1) #0 {
  %3 = alloca ptr, align 8
  %4 = icmp eq ptr %1, null
  br i1 %4, label %ossl_param_is_empty.exit.thread, label %ossl_param_is_empty.exit

ossl_param_is_empty.exit:                         ; preds = %2
  %5 = load ptr, ptr %1, align 8, !tbaa !23
  %.not = icmp eq ptr %5, null
  br i1 %.not, label %ossl_param_is_empty.exit.thread, label %6

6:                                                ; preds = %ossl_param_is_empty.exit
  %7 = tail call ptr @OSSL_PARAM_locate_const(ptr noundef nonnull %1, ptr noundef nonnull @.str.1) #4
  %.not11 = icmp eq ptr %7, null
  br i1 %.not11, label %ossl_param_is_empty.exit.thread, label %8

8:                                                ; preds = %6
  call void @llvm.lifetime.start.p0(i64 8, ptr nonnull %3) #4
  store ptr null, ptr %3, align 8, !tbaa !25
  %9 = getelementptr inbounds nuw i8, ptr %7, i64 8
  %10 = load i32, ptr %9, align 8, !tbaa !26
  %.not12 = icmp eq i32 %10, 4
  br i1 %.not12, label %11, label %ossl_param_is_empty.exit.thread.sink.split

11:                                               ; preds = %8
  %12 = call i32 @OSSL_PARAM_get_utf8_string_ptr(ptr noundef nonnull %7, ptr noundef nonnull %3) #4
  %.not13 = icmp eq i32 %12, 0
  br i1 %.not13, label %.critedge.sink.split, label %13

13:                                               ; preds = %11
  %14 = load ptr, ptr %3, align 8, !tbaa !25
  %15 = call i32 @OPENSSL_strcasecmp(ptr noundef %14, ptr noundef nonnull @.str.2) #4
  %16 = icmp eq i32 %15, 0
  br i1 %16, label %21, label %17

17:                                               ; preds = %13
  %18 = load ptr, ptr %3, align 8, !tbaa !25
  %19 = call i32 @OPENSSL_strcasecmp(ptr noundef %18, ptr noundef nonnull @.str.3) #4
  %20 = icmp eq i32 %19, 0
  br i1 %20, label %21, label %.critedge.sink.split

21:                                               ; preds = %17, %13
  %.sink = phi i32 [ 0, %13 ], [ 1, %17 ]
  %22 = getelementptr inbounds nuw i8, ptr %0, i64 448
  store i32 %.sink, ptr %22, align 8, !tbaa !17
  br label %ossl_param_is_empty.exit.thread.sink.split

.critedge.sink.split:                             ; preds = %17, %11
  %.sink17 = phi i32 [ 227, %11 ], [ 235, %17 ]
  %.sink16 = phi i32 [ 103, %11 ], [ 104, %17 ]
  call void @ERR_new() #4
  call void @ERR_set_debug(ptr noundef nonnull @.str, i32 noundef %.sink17, ptr noundef nonnull @__func__.sm4_xts_set_ctx_params) #4
  call void (i32, i32, ptr, ...) @ERR_set_error(i32 noundef 57, i32 noundef %.sink16, ptr noundef null) #4
  br label %ossl_param_is_empty.exit.thread.sink.split

ossl_param_is_empty.exit.thread.sink.split:       ; preds = %8, %.critedge.sink.split, %21
  %.09.ph = phi i32 [ 1, %21 ], [ 0, %.critedge.sink.split ], [ 0, %8 ]
  call void @llvm.lifetime.end.p0(i64 8, ptr nonnull %3) #4
  br label %ossl_param_is_empty.exit.thread

ossl_param_is_empty.exit.thread:                  ; preds = %ossl_param_is_empty.exit.thread.sink.split, %2, %6, %ossl_param_is_empty.exit
  %.09 = phi i32 [ 1, %ossl_param_is_empty.exit ], [ 1, %6 ], [ 1, %2 ], [ %.09.ph, %ossl_param_is_empty.exit.thread.sink.split ]
  ret i32 %.09
}